; ModuleID = '46/718.c'
source_filename = "46/718.c"
target datalayout = "e-m:e-p270:32:32-p271:32:32-p272:64:64-i64:64-f80:128-n8:16:32:64-S128"
target triple = "x86_64-pc-linux-gnu"

@__const.main.de = private unnamed_addr constant [4 x i32] [i32 0, i32 1, i32 2, i32 3], align 16
@.str = private unnamed_addr constant [5 x i8] c"%d%d\00", align 1
@.str.1 = private unnamed_addr constant [3 x i8] c"%d\00", align 1
@.str.2 = private unnamed_addr constant [4 x i8] c"%d\0A\00", align 1

; Function Attrs: noinline nounwind uwtable
define dso_local i32 @main() #0 {
  %1 = alloca i32, align 4
  %2 = alloca i32, align 4
  %3 = alloca i32, align 4
  %4 = alloca i32, align 4
  %5 = alloca i32, align 4
  %6 = alloca i32, align 4
  %7 = alloca i32, align 4
  %8 = alloca [4 x i32], align 16
  %9 = alloca i8*, align 8
  %10 = alloca i64, align 8
  %11 = alloca i64, align 8
  %12 = alloca i64, align 8
  %13 = alloca i64, align 8
  store i32 0, i32* %1, align 4
  store i32 0, i32* %6, align 4
  store i32 0, i32* %7, align 4
  %14 = bitcast [4 x i32]* %8 to i8*
  call void @llvm.memcpy.p0i8.p0i8.i64(i8* align 16 %14, i8* align 16 bitcast ([4 x i32]* @__const.main.de to i8*), i64 16, i1 false)
  %15 = call i32 (i8*, ...) @__isoc99_scanf(i8* getelementptr inbounds ([5 x i8], [5 x i8]* @.str, i64 0, i64 0), i32* %2, i32* %3)
  %16 = load i32, i32* %2, align 4
  %17 = zext i32 %16 to i64
  %18 = load i32, i32* %3, align 4
  %19 = zext i32 %18 to i64
  %20 = call i8* @llvm.stacksave()
  store i8* %20, i8** %9, align 8
  %21 = mul nuw i64 %17, %19
  %22 = alloca i32, i64 %21, align 16
  store i64 %17, i64* %10, align 8
  store i64 %19, i64* %11, align 8
  %23 = load i32, i32* %2, align 4
  %24 = zext i32 %23 to i64
  %25 = load i32, i32* %3, align 4
  %26 = zext i32 %25 to i64
  %27 = mul nuw i64 %24, %26
  %28 = alloca i32, i64 %27, align 16
  store i64 %24, i64* %12, align 8
  store i64 %26, i64* %13, align 8
  store i32 0, i32* %4, align 4
  br label %29

29:                                               ; preds = %58, %0
  %30 = load i32, i32* %4, align 4
  %31 = load i32, i32* %2, align 4
  %32 = icmp slt i32 %30, %31
  br i1 %32, label %33, label %61

33:                                               ; preds = %29
  store i32 0, i32* %5, align 4
  br label %34

34:                                               ; preds = %54, %33
  %35 = load i32, i32* %5, align 4
  %36 = load i32, i32* %3, align 4
  %37 = icmp slt i32 %35, %36
  br i1 %37, label %38, label %57

38:                                               ; preds = %34
  %39 = load i32, i32* %4, align 4
  %40 = sext i32 %39 to i64
  %41 = mul nsw i64 %40, %19
  %42 = getelementptr inbounds i32, i32* %22, i64 %41
  %43 = load i32, i32* %5, align 4
  %44 = sext i32 %43 to i64
  %45 = getelementptr inbounds i32, i32* %42, i64 %44
  %46 = call i32 (i8*, ...) @__isoc99_scanf(i8* getelementptr inbounds ([3 x i8], [3 x i8]* @.str.1, i64 0, i64 0), i32* %45)
  %47 = load i32, i32* %4, align 4
  %48 = sext i32 %47 to i64
  %49 = mul nsw i64 %48, %26
  %50 = getelementptr inbounds i32, i32* %28, i64 %49
  %51 = load i32, i32* %5, align 4
  %52 = sext i32 %51 to i64
  %53 = getelementptr inbounds i32, i32* %50, i64 %52
  store i32 1, i32* %53, align 4
  br label %54

54:                                               ; preds = %38
  %55 = load i32, i32* %5, align 4
  %56 = add nsw i32 %55, 1
  store i32 %56, i32* %5, align 4
  br label %34

57:                                               ; preds = %34
  br label %58

58:                                               ; preds = %57
  %59 = load i32, i32* %4, align 4
  %60 = add nsw i32 %59, 1
  store i32 %60, i32* %4, align 4
  br label %29

61:                                               ; preds = %29
  store i32 0, i32* %4, align 4
  store i32 0, i32* %5, align 4
  store i32 0, i32* %7, align 4
  br label %62

62:                                               ; preds = %155, %61
  %63 = load i32, i32* %7, align 4
  %64 = load i32, i32* %2, align 4
  %65 = load i32, i32* %3, align 4
  %66 = mul nsw i32 %64, %65
  %67 = icmp slt i32 %63, %66
  br i1 %67, label %68, label %158

68:                                               ; preds = %62
  %69 = load i32, i32* %4, align 4
  %70 = sext i32 %69 to i64
  %71 = mul nsw i64 %70, %19
  %72 = getelementptr inbounds i32, i32* %22, i64 %71
  %73 = load i32, i32* %5, align 4
  %74 = sext i32 %73 to i64
  %75 = getelementptr inbounds i32, i32* %72, i64 %74
  %76 = load i32, i32* %75, align 4
  %77 = call i32 (i8*, ...) @printf(i8* getelementptr inbounds ([4 x i8], [4 x i8]* @.str.2, i64 0, i64 0), i32 %76)
  %78 = load i32, i32* %4, align 4
  %79 = sext i32 %78 to i64
  %80 = mul nsw i64 %79, %26
  %81 = getelementptr inbounds i32, i32* %28, i64 %80
  %82 = load i32, i32* %5, align 4
  %83 = sext i32 %82 to i64
  %84 = getelementptr inbounds i32, i32* %81, i64 %83
  store i32 0, i32* %84, align 4
  %85 = load i32, i32* %6, align 4
  %86 = sext i32 %85 to i64
  %87 = getelementptr inbounds [4 x i32], [4 x i32]* %8, i64 0, i64 %86
  %88 = load i32, i32* %87, align 4
  switch i32 %88, label %101 [
    i32 0, label %89
    i32 1, label %92
    i32 2, label %95
    i32 3, label %98
  ]

89:                                               ; preds = %68
  %90 = load i32, i32* %5, align 4
  %91 = add nsw i32 %90, 1
  store i32 %91, i32* %5, align 4
  br label %101

92:                                               ; preds = %68
  %93 = load i32, i32* %4, align 4
  %94 = add nsw i32 %93, 1
  store i32 %94, i32* %4, align 4
  br label %101

95:                                               ; preds = %68
  %96 = load i32, i32* %5, align 4
  %97 = add nsw i32 %96, -1
  store i32 %97, i32* %5, align 4
  br label %101

98:                                               ; preds = %68
  %99 = load i32, i32* %4, align 4
  %100 = add nsw i32 %99, -1
  store i32 %100, i32* %4, align 4
  br label %101

101:                                              ; preds = %68, %98, %95, %92, %89
  %102 = load i32, i32* %4, align 4
  %103 = icmp slt i32 %102, 0
  br i1 %103, label %125, label %104

104:                                              ; preds = %101
  %105 = load i32, i32* %4, align 4
  %106 = load i32, i32* %2, align 4
  %107 = icmp sge i32 %105, %106
  br i1 %107, label %125, label %108

108:                                              ; preds = %104
  %109 = load i32, i32* %5, align 4
  %110 = icmp slt i32 %109, 0
  br i1 %110, label %125, label %111

111:                                              ; preds = %108
  %112 = load i32, i32* %5, align 4
  %113 = load i32, i32* %3, align 4
  %114 = icmp sge i32 %112, %113
  br i1 %114, label %125, label %115

115:                                              ; preds = %111
  %116 = load i32, i32* %4, align 4
  %117 = sext i32 %116 to i64
  %118 = mul nsw i64 %117, %26
  %119 = getelementptr inbounds i32, i32* %28, i64 %118
  %120 = load i32, i32* %5, align 4
  %121 = sext i32 %120 to i64
  %122 = getelementptr inbounds i32, i32* %119, i64 %121
  %123 = load i32, i32* %122, align 4
  %124 = icmp eq i32 %123, 0
  br i1 %124, label %125, label %154

125:                                              ; preds = %115, %111, %108, %104, %101
  %126 = load i32, i32* %6, align 4
  %127 = sext i32 %126 to i64
  %128 = getelementptr inbounds [4 x i32], [4 x i32]* %8, i64 0, i64 %127
  %129 = load i32, i32* %128, align 4
  switch i32 %129, label %150 [
    i32 0, label %130
    i32 1, label %135
    i32 2, label %140
    i32 3, label %145
  ]

130:                                              ; preds = %125
  %131 = load i32, i32* %5, align 4
  %132 = add nsw i32 %131, -1
  store i32 %132, i32* %5, align 4
  %133 = load i32, i32* %4, align 4
  %134 = add nsw i32 %133, 1
  store i32 %134, i32* %4, align 4
  br label %150

135:                                              ; preds = %125
  %136 = load i32, i32* %4, align 4
  %137 = add nsw i32 %136, -1
  store i32 %137, i32* %4, align 4
  %138 = load i32, i32* %5, align 4
  %139 = add nsw i32 %138, -1
  store i32 %139, i32* %5, align 4
  br label %150

140:                                              ; preds = %125
  %141 = load i32, i32* %5, align 4
  %142 = add nsw i32 %141, 1
  store i32 %142, i32* %5, align 4
  %143 = load i32, i32* %4, align 4
  %144 = add nsw i32 %143, -1
  store i32 %144, i32* %4, align 4
  br label %150

145:                                              ; preds = %125
  %146 = load i32, i32* %4, align 4
  %147 = add nsw i32 %146, 1
  store i32 %147, i32* %4, align 4
  %148 = load i32, i32* %5, align 4
  %149 = add nsw i32 %148, 1
  store i32 %149, i32* %5, align 4
  br label %150

150:                                              ; preds = %125, %145, %140, %135, %130
  %151 = load i32, i32* %6, align 4
  %152 = add nsw i32 %151, 1
  %153 = srem i32 %152, 4
  store i32 %153, i32* %6, align 4
  br label %154

154:                                              ; preds = %150, %115
  br label %155

155:                                              ; preds = %154
  %156 = load i32, i32* %7, align 4
  %157 = add nsw i32 %156, 1
  store i32 %157, i32* %7, align 4
  br label %62

158:                                              ; preds = %62
  store i32 0, i32* %1, align 4
  %159 = load i8*, i8** %9, align 8
  call void @llvm.stackrestore(i8* %159)
  %160 = load i32, i32* %1, align 4
  ret i32 %160
}

; Function Attrs: argmemonly nounwind willreturn
declare void @llvm.memcpy.p0i8.p0i8.i64(i8* noalias nocapture writeonly, i8* noalias nocapture readonly, i64, i1 immarg) #1

declare dso_local i32 @__isoc99_scanf(i8*, ...) #2

; Function Attrs: nounwind
declare i8* @llvm.stacksave() #3

declare dso_local i32 @printf(i8*, ...) #2

; Function Attrs: nounwind
declare void @llvm.stackrestore(i8*) #3


!llvm.module.flags = !{!0}
!llvm.ident = !{!1}

!0 = !{i32 1, !"wchar_size", i32 4}
!1 = !{!"clang version 10.0.0-4ubuntu1 "}
